; Function Attrs: nounwind uwtable
define dso_local range(i32 -1, 1) i32 @launch_editor(ptr noundef %0, ptr noundef %1, ptr noundef %2) local_unnamed_addr #4 {
  %4 = tail call ptr @getenv(ptr noundef nonnull @.str.2) #10
  %5 = tail call ptr @getenv(ptr noundef nonnull @.str) #10
  %.not.i.i = icmp eq ptr %5, null
  br i1 %.not.i.i, label %is_terminal_dumb.exit.i, label %6

6:                                                ; preds = %3
  %7 = tail call i32 @strcmp(ptr noundef nonnull dereferenceable(1) %5, ptr noundef nonnull dereferenceable(5) @.str.1) #11
  %.not2.i.i = icmp eq i32 %7, 0
  br label %is_terminal_dumb.exit.i

is_terminal_dumb.exit.i:                          ; preds = %6, %3
  %8 = phi i1 [ true, %3 ], [ %.not2.i.i, %6 ]
  %9 = icmp eq ptr %4, null
  %10 = load ptr, ptr @editor_program, align 8
  %11 = icmp ne ptr %10, null
  %or.cond.i = select i1 %9, i1 %11, i1 false
  %spec.select.i = select i1 %or.cond.i, ptr %10, ptr %4
  %12 = icmp ne ptr %spec.select.i, null
  %or.cond3.i = select i1 %12, i1 true, i1 %8
  br i1 %or.cond3.i, label %15, label %13

13:                                               ; preds = %is_terminal_dumb.exit.i
  %14 = tail call ptr @getenv(ptr noundef nonnull @.str.3) #10
  br label %15

15:                                               ; preds = %13, %is_terminal_dumb.exit.i
  %.1.i = phi ptr [ %spec.select.i, %is_terminal_dumb.exit.i ], [ %14, %13 ]
  %.not.i = icmp eq ptr %.1.i, null
  br i1 %.not.i, label %16, label %git_editor.exit

16:                                               ; preds = %15
  %17 = tail call ptr @getenv(ptr noundef nonnull @.str.4) #10
  br label %git_editor.exit

git_editor.exit:                                  ; preds = %15, %16
  %.2.i = phi ptr [ %.1.i, %15 ], [ %17, %16 ]
  %18 = icmp eq ptr %.2.i, null
  %spec.store.select.i = select i1 %8, ptr null, ptr @.str.5
  %.0.i = select i1 %18, ptr %spec.store.select.i, ptr %.2.i
  %19 = tail call fastcc i32 @launch_specified_editor(ptr noundef %.0.i, ptr noundef %0, ptr noundef %1, ptr noundef %2)
  ret i32 %19
}